target datalayout = "e-m:e-p270:32:32-p271:32:32-p272:64:64-i64:64-i128:128-f80:128-n8:16:32:64-S128"
target triple = "x86_64-pc-linux-gnu"

%struct.trie = type { [256 x ptr], i32, ptr, ptr }

; Function Attrs: nounwind uwtable
define internal i32 @trie_find(ptr noundef %0, ptr noundef %1, ptr noundef %2, ptr noundef %3) #0 {
  %5 = alloca i32, align 4
  %6 = alloca ptr, align 8
  %7 = alloca ptr, align 8
  %8 = alloca ptr, align 8
  %9 = alloca ptr, align 8
  %10 = alloca i32, align 4
  %11 = alloca i32, align 4
  %12 = alloca ptr, align 8
  %13 = alloca i32, align 4
  store ptr %0, ptr %6, align 8, !tbaa !129
  store ptr %1, ptr %7, align 8, !tbaa !43
  store ptr %2, ptr %8, align 8, !tbaa !44
  store ptr %3, ptr %9, align 8, !tbaa !44
  call void @llvm.lifetime.start.p0(i64 4, ptr %10) #12
  call void @llvm.lifetime.start.p0(i64 4, ptr %11) #12
  call void @llvm.lifetime.start.p0(i64 8, ptr %12) #12
  %14 = load ptr, ptr %7, align 8, !tbaa !43
  %15 = load i8, ptr %14, align 1, !tbaa !18
  %16 = icmp ne i8 %15, 0
  br i1 %16, label %36, label %17

17:                                               ; preds = %4
  %18 = load ptr, ptr %6, align 8, !tbaa !129
  %19 = getelementptr inbounds nuw %struct.trie, ptr %18, i32 0, i32 3
  %20 = load ptr, ptr %19, align 8, !tbaa !131
  %21 = icmp ne ptr %20, null
  br i1 %21, label %22, label %35

22:                                               ; preds = %17
  %23 = load ptr, ptr %6, align 8, !tbaa !129
  %24 = getelementptr inbounds nuw %struct.trie, ptr %23, i32 0, i32 1
  %25 = load i32, ptr %24, align 8, !tbaa !133
  %26 = icmp ne i32 %25, 0
  br i1 %26, label %35, label %27

27:                                               ; preds = %22
  %28 = load ptr, ptr %8, align 8, !tbaa !44
  %29 = load ptr, ptr %7, align 8, !tbaa !43
  %30 = load ptr, ptr %6, align 8, !tbaa !129
  %31 = getelementptr inbounds nuw %struct.trie, ptr %30, i32 0, i32 3
  %32 = load ptr, ptr %31, align 8, !tbaa !131
  %33 = load ptr, ptr %9, align 8, !tbaa !44
  %34 = call i32 %28(ptr noundef %29, ptr noundef %32, ptr noundef %33)
  store i32 %34, ptr %5, align 4
  store i32 1, ptr %13, align 4
  br label %171

35:                                               ; preds = %22, %17
  store i32 -1, ptr %5, align 4
  store i32 1, ptr %13, align 4
  br label %171

36:                                               ; preds = %4
  store i32 0, ptr %10, align 4, !tbaa !4
  br label %37

37:                                               ; preds = %81, %36
  %38 = load i32, ptr %10, align 4, !tbaa !4
  %39 = load ptr, ptr %6, align 8, !tbaa !129
  %40 = getelementptr inbounds nuw %struct.trie, ptr %39, i32 0, i32 1
  %41 = load i32, ptr %40, align 8, !tbaa !133
  %42 = icmp slt i32 %38, %41
  br i1 %42, label %43, label %84

43:                                               ; preds = %37
  %44 = load ptr, ptr %7, align 8, !tbaa !43
  %45 = load i32, ptr %10, align 4, !tbaa !4
  %46 = sext i32 %45 to i64
  %47 = getelementptr inbounds i8, ptr %44, i64 %46
  %48 = load i8, ptr %47, align 1, !tbaa !18
  %49 = sext i8 %48 to i32
  %50 = icmp eq i32 %49, 47
  br i1 %50, label %51, label %63

51:                                               ; preds = %43
  %52 = load ptr, ptr %7, align 8, !tbaa !43
  %53 = load i32, ptr %10, align 4, !tbaa !4
  %54 = add nsw i32 %53, 1
  %55 = sext i32 %54 to i64
  %56 = getelementptr inbounds i8, ptr %52, i64 %55
  %57 = load i8, ptr %56, align 1, !tbaa !18
  %58 = sext i8 %57 to i32
  %59 = icmp eq i32 %58, 47
  br i1 %59, label %60, label %63

60:                                               ; preds = %51
  %61 = load ptr, ptr %7, align 8, !tbaa !43
  %62 = getelementptr inbounds nuw i8, ptr %61, i32 1
  store ptr %62, ptr %7, align 8, !tbaa !43
  br label %81

63:                                               ; preds = %51, %43
  %64 = load ptr, ptr %6, align 8, !tbaa !129
  %65 = getelementptr inbounds nuw %struct.trie, ptr %64, i32 0, i32 2
  %66 = load ptr, ptr %65, align 8, !tbaa !134
  %67 = load i32, ptr %10, align 4, !tbaa !4
  %68 = sext i32 %67 to i64
  %69 = getelementptr inbounds i8, ptr %66, i64 %68
  %70 = load i8, ptr %69, align 1, !tbaa !18
  %71 = sext i8 %70 to i32
  %72 = load ptr, ptr %7, align 8, !tbaa !43
  %73 = load i32, ptr %10, align 4, !tbaa !4
  %74 = sext i32 %73 to i64
  %75 = getelementptr inbounds i8, ptr %72, i64 %74
  %76 = load i8, ptr %75, align 1, !tbaa !18
  %77 = sext i8 %76 to i32
  %78 = icmp ne i32 %71, %77
  br i1 %78, label %79, label %80

79:                                               ; preds = %63
  store i32 -1, ptr %5, align 4
  store i32 1, ptr %13, align 4
  br label %171

80:                                               ; preds = %63
  br label %81

81:                                               ; preds = %80, %60
  %82 = load i32, ptr %10, align 4, !tbaa !4
  %83 = add nsw i32 %82, 1
  store i32 %83, ptr %10, align 4, !tbaa !4
  br label %37, !llvm.loop !135

84:                                               ; preds = %37
  %85 = load i32, ptr %10, align 4, !tbaa !4
  %86 = load ptr, ptr %7, align 8, !tbaa !43
  %87 = sext i32 %85 to i64
  %88 = getelementptr inbounds i8, ptr %86, i64 %87
  store ptr %88, ptr %7, align 8, !tbaa !43
  %89 = load ptr, ptr %7, align 8, !tbaa !43
  %90 = load i8, ptr %89, align 1, !tbaa !18
  %91 = icmp ne i8 %90, 0
  br i1 %91, label %106, label %92

92:                                               ; preds = %84
  %93 = load ptr, ptr %6, align 8, !tbaa !129
  %94 = getelementptr inbounds nuw %struct.trie, ptr %93, i32 0, i32 3
  %95 = load ptr, ptr %94, align 8, !tbaa !131
  %96 = icmp ne ptr %95, null
  br i1 %96, label %97, label %105

97:                                               ; preds = %92
  %98 = load ptr, ptr %8, align 8, !tbaa !44
  %99 = load ptr, ptr %7, align 8, !tbaa !43
  %100 = load ptr, ptr %6, align 8, !tbaa !129
  %101 = getelementptr inbounds nuw %struct.trie, ptr %100, i32 0, i32 3
  %102 = load ptr, ptr %101, align 8, !tbaa !131
  %103 = load ptr, ptr %9, align 8, !tbaa !44
  %104 = call i32 %98(ptr noundef %99, ptr noundef %102, ptr noundef %103)
  store i32 %104, ptr %5, align 4
  store i32 1, ptr %13, align 4
  br label %171

105:                                              ; preds = %92
  store i32 -1, ptr %5, align 4
  store i32 1, ptr %13, align 4
  br label %171

106:                                              ; preds = %84
  br label %107

107:                                              ; preds = %121, %106
  %108 = load ptr, ptr %7, align 8, !tbaa !43
  %109 = getelementptr inbounds i8, ptr %108, i64 0
  %110 = load i8, ptr %109, align 1, !tbaa !18
  %111 = sext i8 %110 to i32
  %112 = icmp eq i32 %111, 47
  br i1 %112, label %113, label %119

113:                                              ; preds = %107
  %114 = load ptr, ptr %7, align 8, !tbaa !43
  %115 = getelementptr inbounds i8, ptr %114, i64 1
  %116 = load i8, ptr %115, align 1, !tbaa !18
  %117 = sext i8 %116 to i32
  %118 = icmp eq i32 %117, 47
  br label %119

119:                                              ; preds = %113, %107
  %120 = phi i1 [ false, %107 ], [ %118, %113 ]
  br i1 %120, label %121, label %124

121:                                              ; preds = %119
  %122 = load ptr, ptr %7, align 8, !tbaa !43
  %123 = getelementptr inbounds nuw i8, ptr %122, i32 1
  store ptr %123, ptr %7, align 8, !tbaa !43
  br label %107, !llvm.loop !136

124:                                              ; preds = %119
  %125 = load ptr, ptr %6, align 8, !tbaa !129
  %126 = getelementptr inbounds nuw %struct.trie, ptr %125, i32 0, i32 0
  %127 = load ptr, ptr %7, align 8, !tbaa !43
  %128 = load i8, ptr %127, align 1, !tbaa !18
  %129 = zext i8 %128 to i64
  %130 = getelementptr inbounds nuw [256 x ptr], ptr %126, i64 0, i64 %129
  %131 = load ptr, ptr %130, align 8, !tbaa !129
  store ptr %131, ptr %12, align 8, !tbaa !129
  %132 = load ptr, ptr %12, align 8, !tbaa !129
  %133 = icmp ne ptr %132, null
  br i1 %133, label %134, label %141

134:                                              ; preds = %124
  %135 = load ptr, ptr %12, align 8, !tbaa !129
  %136 = load ptr, ptr %7, align 8, !tbaa !43
  %137 = getelementptr inbounds i8, ptr %136, i64 1
  %138 = load ptr, ptr %8, align 8, !tbaa !44
  %139 = load ptr, ptr %9, align 8, !tbaa !44
  %140 = call i32 @trie_find(ptr noundef %135, ptr noundef %137, ptr noundef %138, ptr noundef %139)
  store i32 %140, ptr %11, align 4, !tbaa !4
  br label %142

141:                                              ; preds = %124
  store i32 -1, ptr %11, align 4, !tbaa !4
  br label %142

142:                                              ; preds = %141, %134
  %143 = load i32, ptr %11, align 4, !tbaa !4
  %144 = icmp sge i32 %143, 0
  br i1 %144, label %155, label %145

145:                                              ; preds = %142
  %146 = load ptr, ptr %7, align 8, !tbaa !43
  %147 = load i8, ptr %146, align 1, !tbaa !18
  %148 = sext i8 %147 to i32
  %149 = icmp ne i32 %148, 47
  br i1 %149, label %150, label %157

150:                                              ; preds = %145
  %151 = load ptr, ptr %7, align 8, !tbaa !43
  %152 = load i8, ptr %151, align 1, !tbaa !18
  %153 = sext i8 %152 to i32
  %154 = icmp ne i32 %153, 0
  br i1 %154, label %155, label %157

155:                                              ; preds = %150, %142
  %156 = load i32, ptr %11, align 4, !tbaa !4
  store i32 %156, ptr %5, align 4
  store i32 1, ptr %13, align 4
  br label %171

157:                                              ; preds = %150, %145
  %158 = load ptr, ptr %6, align 8, !tbaa !129
  %159 = getelementptr inbounds nuw %struct.trie, ptr %158, i32 0, i32 3
  %160 = load ptr, ptr %159, align 8, !tbaa !131
  %161 = icmp ne ptr %160, null
  br i1 %161, label %162, label %170

162:                                              ; preds = %157
  %163 = load ptr, ptr %8, align 8, !tbaa !44
  %164 = load ptr, ptr %7, align 8, !tbaa !43
  %165 = load ptr, ptr %6, align 8, !tbaa !129
  %166 = getelementptr inbounds nuw %struct.trie, ptr %165, i32 0, i32 3
  %167 = load ptr, ptr %166, align 8, !tbaa !131
  %168 = load ptr, ptr %9, align 8, !tbaa !44
  %169 = call i32 %163(ptr noundef %164, ptr noundef %167, ptr noundef %168)
  store i32 %169, ptr %5, align 4
  store i32 1, ptr %13, align 4
  br label %171

170:                                              ; preds = %157
  store i32 -1, ptr %5, align 4
  store i32 1, ptr %13, align 4
  br label %171

171:                                              ; preds = %170, %162, %155, %105, %97, %79, %35, %27
  call void @llvm.lifetime.end.p0(i64 8, ptr %12) #12
  call void @llvm.lifetime.end.p0(i64 4, ptr %11) #12
  call void @llvm.lifetime.end.p0(i64 4, ptr %10) #12
  %172 = load i32, ptr %5, align 4
  ret i32 %172
}