; Function Attrs: nofree nosync nounwind memory(read, inaccessiblemem: none) uwtable
define internal fastcc range(i32 -1, 2) i32 @trie_find(ptr noundef readonly captures(none) %0, ptr noundef readonly captures(none) %1) unnamed_addr #23 {
  %3 = load i8, ptr %1, align 1, !tbaa !14
  %.not = icmp eq i8 %3, 0
  br i1 %.not, label %8, label %.preheader4

.preheader4:                                      ; preds = %2
  %4 = getelementptr inbounds nuw i8, ptr %0, i64 2048
  %5 = load i32, ptr %4, align 8, !tbaa !113
  %6 = icmp sgt i32 %5, 0
  br i1 %6, label %.lr.ph, label %.preheader.preheader

.lr.ph:                                           ; preds = %.preheader4
  %7 = getelementptr inbounds nuw i8, ptr %0, i64 2056
  %wide.trip.count = zext nneg i32 %5 to i64
  br label %15

8:                                                ; preds = %2
  %9 = getelementptr inbounds nuw i8, ptr %0, i64 2064
  %10 = load ptr, ptr %9, align 8, !tbaa !116
  %.not54 = icmp eq ptr %10, null
  br i1 %.not54, label %.loopexit, label %11

11:                                               ; preds = %8
  %12 = getelementptr inbounds nuw i8, ptr %0, i64 2048
  %13 = load i32, ptr %12, align 8, !tbaa !113
  %.not55 = icmp eq i32 %13, 0
  br i1 %.not55, label %check_common.exit, label %.loopexit

check_common.exit:                                ; preds = %11
  %14 = load i8, ptr %10, align 8
  %.0.shrunk.i.v = lshr i8 %14, 2
  %.0.shrunk.i = and i8 %.0.shrunk.i.v, 1
  %.0.i = zext nneg i8 %.0.shrunk.i to i32
  br label %.loopexit

15:                                               ; preds = %.lr.ph, %29
  %indvars.iv = phi i64 [ 0, %.lr.ph ], [ %indvars.iv.next, %29 ]
  %.0487 = phi ptr [ %1, %.lr.ph ], [ %.1, %29 ]
  %16 = getelementptr inbounds nuw i8, ptr %.0487, i64 %indvars.iv
  %17 = load i8, ptr %16, align 1, !tbaa !14
  %18 = icmp eq i8 %17, 47
  br i1 %18, label %19, label %25

19:                                               ; preds = %15
  %20 = getelementptr inbounds nuw i8, ptr %16, i64 1
  %21 = load i8, ptr %20, align 1, !tbaa !14
  %22 = icmp eq i8 %21, 47
  br i1 %22, label %23, label %25

23:                                               ; preds = %19
  %24 = getelementptr inbounds nuw i8, ptr %.0487, i64 1
  br label %29

25:                                               ; preds = %19, %15
  %26 = load ptr, ptr %7, align 8, !tbaa !115
  %27 = getelementptr inbounds nuw i8, ptr %26, i64 %indvars.iv
  %28 = load i8, ptr %27, align 1, !tbaa !14
  %.not62 = icmp eq i8 %28, %17
  br i1 %.not62, label %29, label %.loopexit

29:                                               ; preds = %25, %23
  %.1 = phi ptr [ %24, %23 ], [ %.0487, %25 ]
  %indvars.iv.next = add nuw nsw i64 %indvars.iv, 1
  %exitcond.not = icmp eq i64 %indvars.iv.next, %wide.trip.count
  br i1 %exitcond.not, label %._crit_edge, label %15, !llvm.loop !121

._crit_edge:                                      ; preds = %29
  %.phi.trans.insert = zext nneg i32 %5 to i64
  %.phi.trans.insert12 = getelementptr inbounds nuw i8, ptr %.1, i64 %.phi.trans.insert
  %.pre = load i8, ptr %.phi.trans.insert12, align 1, !tbaa !14
  %30 = zext nneg i32 %5 to i64
  %.not56 = icmp eq i8 %.pre, 0
  br i1 %.not56, label %33, label %.preheader.preheader

.preheader.preheader:                             ; preds = %.preheader4, %._crit_edge
  %.047.lcssa17 = phi i64 [ %30, %._crit_edge ], [ 0, %.preheader4 ]
  %.048.lcssa16 = phi ptr [ %.1, %._crit_edge ], [ %1, %.preheader4 ]
  %31 = phi i8 [ %.pre, %._crit_edge ], [ %3, %.preheader4 ]
  %32 = getelementptr inbounds nuw i8, ptr %.048.lcssa16, i64 %.047.lcssa17
  br label %.preheader

33:                                               ; preds = %._crit_edge
  %34 = getelementptr inbounds nuw i8, ptr %0, i64 2064
  %35 = load ptr, ptr %34, align 8, !tbaa !116
  %.not57 = icmp eq ptr %35, null
  br i1 %.not57, label %.loopexit, label %check_common.exit66

check_common.exit66:                              ; preds = %33
  %36 = load i8, ptr %35, align 8
  %.0.shrunk.i64.v = lshr i8 %36, 2
  %.0.shrunk.i64 = and i8 %.0.shrunk.i64.v, 1
  %.0.i65 = zext nneg i8 %.0.shrunk.i64 to i32
  br label %.loopexit

.preheader:                                       ; preds = %.preheader.preheader, %39
  %37 = phi i8 [ 47, %39 ], [ %31, %.preheader.preheader ]
  %.2 = phi ptr [ %40, %39 ], [ %32, %.preheader.preheader ]
  %38 = icmp eq i8 %37, 47
  br i1 %38, label %39, label %.critedge

39:                                               ; preds = %.preheader
  %40 = getelementptr inbounds nuw i8, ptr %.2, i64 1
  %41 = load i8, ptr %40, align 1, !tbaa !14
  %42 = icmp eq i8 %41, 47
  br i1 %42, label %.preheader, label %.critedge, !llvm.loop !122

.critedge:                                        ; preds = %.preheader, %39
  %43 = zext i8 %37 to i64
  %44 = getelementptr inbounds nuw [256 x ptr], ptr %0, i64 0, i64 %43
  %45 = load ptr, ptr %44, align 8, !tbaa !117
  %.not58 = icmp eq ptr %45, null
  br i1 %.not58, label %.thread, label %46

46:                                               ; preds = %.critedge
  %47 = getelementptr inbounds nuw i8, ptr %.2, i64 1
  %48 = tail call fastcc i32 @trie_find(ptr noundef nonnull %45, ptr noundef nonnull %47)
  %49 = icmp sgt i32 %48, -1
  br i1 %49, label %.loopexit, label %.thread

.thread:                                          ; preds = %.critedge, %46
  %cond = icmp eq i8 %37, 47
  br i1 %cond, label %50, label %.loopexit

50:                                               ; preds = %.thread
  %51 = getelementptr inbounds nuw i8, ptr %0, i64 2064
  %52 = load ptr, ptr %51, align 8, !tbaa !116
  %.not61 = icmp eq ptr %52, null
  br i1 %.not61, label %.loopexit, label %check_common.exit70

check_common.exit70:                              ; preds = %50
  %53 = load i8, ptr %52, align 8
  %54 = and i8 %53, 2
  %.not.i67.not = icmp eq i8 %54, 0
  %55 = lshr i8 %53, 2
  %56 = and i8 %55, 1
  %.0.shrunk.i68 = select i1 %.not.i67.not, i8 0, i8 %56
  %.0.i69 = zext nneg i8 %.0.shrunk.i68 to i32
  br label %.loopexit

.loopexit:                                        ; preds = %25, %.thread, %50, %46, %33, %8, %11, %check_common.exit70, %check_common.exit66, %check_common.exit
  %.0 = phi i32 [ %.0.i69, %check_common.exit70 ], [ %.0.i65, %check_common.exit66 ], [ %.0.i, %check_common.exit ], [ -1, %11 ], [ -1, %8 ], [ -1, %33 ], [ -1, %.thread ], [ %48, %46 ], [ -1, %50 ], [ -1, %25 ]
  ret i32 %.0
}